; Function Attrs: nounwind uwtable
define internal void @pointerHandleEnter(ptr readnone captures(none) %0, ptr readnone captures(none) %1, i32 noundef %2, ptr noundef %3, i32 %4, i32 %5) #0 {
  %.not = icmp eq ptr %3, null
  br i1 %.not, label %25, label %7

7:                                                ; preds = %6
  %8 = load ptr, ptr getelementptr inbounds nuw (i8, ptr @_glfw, i64 137504), align 8, !tbaa !180
  %9 = tail call ptr %8(ptr noundef nonnull %3) #20
  %.not14 = icmp eq ptr %9, getelementptr inbounds nuw (i8, ptr @_glfw, i64 134088)
  br i1 %.not14, label %10, label %25

10:                                               ; preds = %7
  %11 = load ptr, ptr getelementptr inbounds nuw (i8, ptr @_glfw, i64 137488), align 8, !tbaa !181
  %12 = tail call ptr %11(ptr noundef nonnull %3) #20
  store i32 %2, ptr getelementptr inbounds nuw (i8, ptr @_glfw, i64 134132), align 4, !tbaa !251
  store i32 %2, ptr getelementptr inbounds nuw (i8, ptr @_glfw, i64 134136), align 8, !tbaa !307
  store ptr %12, ptr getelementptr inbounds nuw (i8, ptr @_glfw, i64 137360), align 8, !tbaa !238
  %13 = getelementptr inbounds nuw i8, ptr %12, i64 904
  %14 = load ptr, ptr %13, align 8, !tbaa !135
  %15 = icmp eq ptr %3, %14
  br i1 %15, label %16, label %20

16:                                               ; preds = %10
  %17 = getelementptr inbounds nuw i8, ptr %12, i64 888
  store i32 1, ptr %17, align 8, !tbaa !255
  %18 = getelementptr inbounds nuw i8, ptr %12, i64 992
  %19 = load ptr, ptr %18, align 8, !tbaa !284
  tail call void @_glfwSetCursorWayland(ptr noundef nonnull %12, ptr noundef %19)
  tail call void @_glfwInputCursorEnter(ptr noundef nonnull %12, i32 noundef 1) #20
  br label %25

20:                                               ; preds = %10
  %21 = getelementptr inbounds nuw i8, ptr %12, i64 1120
  %22 = load i32, ptr %21, align 8, !tbaa !162
  %.not15 = icmp eq i32 %22, 0
  br i1 %.not15, label %25, label %23

23:                                               ; preds = %20
  %24 = getelementptr inbounds nuw i8, ptr %12, i64 1232
  store ptr %3, ptr %24, align 8, !tbaa !358
  br label %25

25:                                               ; preds = %16, %23, %20, %7, %6
  ret void
}